; Function Attrs: nounwind uwtable
define void @Gia_ObjCollectInternal_rec(ptr noundef %0, ptr noundef %1) local_unnamed_addr #2 {
  %.val = load i64, ptr %1, align 4
  %3 = and i64 %.val, 536870911
  %4 = icmp ne i64 %3, 536870911
  %5 = and i64 %.val, 3221225472
  %6 = icmp eq i64 %5, 0
  %or.cond = and i1 %6, %4
  br i1 %or.cond, label %7, label %58

7:                                                ; preds = %2
  %8 = or disjoint i64 %.val, 1073741824
  store i64 %8, ptr %1, align 4
  %9 = sub nsw i64 0, %3
  %10 = getelementptr inbounds %struct.Gia_Obj_t_, ptr %1, i64 %9
  tail call void @Gia_ObjCollectInternal_rec(ptr noundef %0, ptr noundef nonnull %10)
  %11 = load i64, ptr %1, align 4
  %12 = lshr i64 %11, 32
  %13 = and i64 %12, 536870911
  %14 = sub nsw i64 0, %13
  %15 = getelementptr inbounds %struct.Gia_Obj_t_, ptr %1, i64 %14
  tail call void @Gia_ObjCollectInternal_rec(ptr noundef %0, ptr noundef nonnull %15)
  %16 = getelementptr inbounds nuw i8, ptr %0, i64 936
  %17 = load ptr, ptr %16, align 8, !tbaa !57
  %18 = getelementptr i8, ptr %17, i64 4
  %.val15 = load i32, ptr %18, align 4, !tbaa !36
  %19 = getelementptr i8, ptr %0, i64 32
  %.val16 = load ptr, ptr %19, align 8, !tbaa !3
  %20 = getelementptr i8, ptr %0, i64 928
  %.val17 = load ptr, ptr %20, align 8, !tbaa !58
  %21 = getelementptr i8, ptr %.val17, i64 8
  %.val17.val = load ptr, ptr %21, align 8, !tbaa !30
  %22 = ptrtoint ptr %1 to i64
  %23 = ptrtoint ptr %.val16 to i64
  %24 = sub i64 %22, %23
  %25 = sdiv exact i64 %24, 12
  %sext.i = shl i64 %25, 32
  %26 = ashr exact i64 %sext.i, 30
  %27 = getelementptr inbounds i8, ptr %.val17.val, i64 %26
  store i32 %.val15, ptr %27, align 4, !tbaa !31
  %28 = trunc i64 %25 to i32
  %29 = load i32, ptr %17, align 8, !tbaa !37
  %30 = icmp eq i32 %.val15, %29
  br i1 %30, label %31, label %.Vec_IntGrow.exit10_crit_edge.i

.Vec_IntGrow.exit10_crit_edge.i:                  ; preds = %7
  %.phi.trans.insert.i = getelementptr inbounds nuw i8, ptr %17, i64 8
  %.pre.i = load ptr, ptr %.phi.trans.insert.i, align 8, !tbaa !30
  br label %Vec_IntPush.exit

31:                                               ; preds = %7
  %32 = icmp slt i32 %.val15, 16
  br i1 %32, label %33, label %41

33:                                               ; preds = %31
  %34 = getelementptr inbounds nuw i8, ptr %17, i64 8
  %35 = load ptr, ptr %34, align 8, !tbaa !30
  %.not9.i.i = icmp eq ptr %35, null
  br i1 %.not9.i.i, label %38, label %36

36:                                               ; preds = %33
  %37 = tail call dereferenceable_or_null(64) ptr @realloc(ptr noundef nonnull %35, i64 noundef 64) #25
  br label %Vec_IntGrow.exit.i

38:                                               ; preds = %33
  %39 = tail call noalias dereferenceable_or_null(64) ptr @malloc(i64 noundef 64) #24
  br label %Vec_IntGrow.exit.i

Vec_IntGrow.exit.i:                               ; preds = %38, %36
  %40 = phi ptr [ %37, %36 ], [ %39, %38 ]
  store ptr %40, ptr %34, align 8, !tbaa !30
  store i32 16, ptr %17, align 8, !tbaa !37
  br label %Vec_IntPush.exit

41:                                               ; preds = %31
  %42 = shl nuw nsw i32 %.val15, 1
  %43 = getelementptr inbounds nuw i8, ptr %17, i64 8
  %44 = load ptr, ptr %43, align 8, !tbaa !30
  %.not9.i9.i = icmp eq ptr %44, null
  %45 = zext nneg i32 %42 to i64
  %46 = shl nuw nsw i64 %45, 2
  br i1 %.not9.i9.i, label %49, label %47

47:                                               ; preds = %41
  %48 = tail call ptr @realloc(ptr noundef nonnull %44, i64 noundef %46) #25
  br label %51

49:                                               ; preds = %41
  %50 = tail call noalias ptr @malloc(i64 noundef %46) #24
  br label %51

51:                                               ; preds = %49, %47
  %52 = phi ptr [ %48, %47 ], [ %50, %49 ]
  store ptr %52, ptr %43, align 8, !tbaa !30
  store i32 %42, ptr %17, align 8, !tbaa !37
  br label %Vec_IntPush.exit

Vec_IntPush.exit:                                 ; preds = %.Vec_IntGrow.exit10_crit_edge.i, %Vec_IntGrow.exit.i, %51
  %53 = phi ptr [ %.pre.i, %.Vec_IntGrow.exit10_crit_edge.i ], [ %52, %51 ], [ %40, %Vec_IntGrow.exit.i ]
  %54 = load i32, ptr %18, align 4, !tbaa !36
  %55 = add nsw i32 %54, 1
  store i32 %55, ptr %18, align 4, !tbaa !36
  %56 = sext i32 %54 to i64
  %57 = getelementptr inbounds i32, ptr %53, i64 %56
  store i32 %28, ptr %57, align 4, !tbaa !31
  br label %58

58:                                               ; preds = %2, %Vec_IntPush.exit
  ret void
}